target datalayout = "e-m:e-p270:32:32-p271:32:32-p272:64:64-i64:64-i128:128-f80:128-n8:16:32:64-S128"
target triple = "x86_64-pc-linux-gnu"

%struct.FuncMap = type { i32, i32, i32, ptr }

@map = dso_local global %struct.FuncMap zeroinitializer, align 8

; Function Attrs: nounwind uwtable
define dso_local void @type_func_prototype_init(i32 noundef %0) #0 {
  %2 = alloca i32, align 4
  store i32 %0, ptr %2, align 4
  %3 = load i32, ptr %2, align 4
  %4 = zext i32 %3 to i64
  %5 = mul i64 %4, 16
  %6 = call ptr @calloc_arena(i64 noundef %5)
  store ptr %6, ptr getelementptr inbounds (%struct.FuncMap, ptr @map, i32 0, i32 3), align 8
  %7 = load i32, ptr %2, align 4
  store i32 %7, ptr getelementptr inbounds (%struct.FuncMap, ptr @map, i32 0, i32 1), align 4
  %8 = load i32, ptr %2, align 4
  %9 = uitofp i32 %8 to double
  %10 = fmul double 5.000000e-01, %9
  %11 = fptoui double %10 to i32
  store i32 %11, ptr getelementptr inbounds (%struct.FuncMap, ptr @map, i32 0, i32 2), align 8
  ret void
}