; Function Attrs: nounwind uwtable
define dso_local void @type_func_prototype_init(i32 noundef %0) local_unnamed_addr #0 {
  %2 = zext i32 %0 to i64
  %3 = shl nuw nsw i64 %2, 4
  %4 = tail call ptr @calloc_arena(i64 noundef %3) #14
  store ptr %4, ptr getelementptr inbounds (%struct.FuncMap, ptr @map, i64 0, i32 3), align 8
  store i32 %0, ptr getelementptr inbounds (%struct.FuncMap, ptr @map, i64 0, i32 1), align 4
  %5 = uitofp i32 %0 to double
  %6 = fmul double %5, 5.000000e-01
  %7 = fptoui double %6 to i32
  store i32 %7, ptr getelementptr inbounds (%struct.FuncMap, ptr @map, i64 0, i32 2), align 8
  ret void
}